target datalayout = "e-m:e-p270:32:32-p271:32:32-p272:64:64-i64:64-i128:128-f80:128-n8:16:32:64-S128"
target triple = "x86_64-pc-linux-gnu"

%struct.lua_State = type { %struct.GCRef, i8, i8, i8, i8, %struct.MRef, %struct.GCRef, ptr, ptr, %struct.MRef, %struct.MRef, %struct.GCRef, %struct.GCRef, ptr, i32 }
%struct.MRef = type { i64 }
%struct.GCRef = type { i64 }
%union.TValue = type { i64 }

; Function Attrs: nounwind uwtable
define internal i32 @makemask(ptr noundef %0, i32 noundef %1) #0 {
  %3 = alloca ptr, align 8
  %4 = alloca i32, align 4
  %5 = alloca i32, align 4
  store ptr %0, ptr %3, align 8, !tbaa !20
  store i32 %1, ptr %4, align 4, !tbaa !19
  call void @llvm.lifetime.start.p0(i64 4, ptr %5) #8
  store i32 0, ptr %5, align 4, !tbaa !19
  %6 = load ptr, ptr %3, align 8, !tbaa !20
  %7 = call ptr @strchr(ptr noundef %6, i32 noundef 99) #9
  %8 = icmp ne ptr %7, null
  br i1 %8, label %9, label %12

9:                                                ; preds = %2
  %10 = load i32, ptr %5, align 4, !tbaa !19
  %11 = or i32 %10, 1
  store i32 %11, ptr %5, align 4, !tbaa !19
  br label %12

12:                                               ; preds = %9, %2
  %13 = load ptr, ptr %3, align 8, !tbaa !20
  %14 = call ptr @strchr(ptr noundef %13, i32 noundef 114) #9
  %15 = icmp ne ptr %14, null
  br i1 %15, label %16, label %19

16:                                               ; preds = %12
  %17 = load i32, ptr %5, align 4, !tbaa !19
  %18 = or i32 %17, 2
  store i32 %18, ptr %5, align 4, !tbaa !19
  br label %19

19:                                               ; preds = %16, %12
  %20 = load ptr, ptr %3, align 8, !tbaa !20
  %21 = call ptr @strchr(ptr noundef %20, i32 noundef 108) #9
  %22 = icmp ne ptr %21, null
  br i1 %22, label %23, label %26

23:                                               ; preds = %19
  %24 = load i32, ptr %5, align 4, !tbaa !19
  %25 = or i32 %24, 4
  store i32 %25, ptr %5, align 4, !tbaa !19
  br label %26

26:                                               ; preds = %23, %19
  %27 = load i32, ptr %4, align 4, !tbaa !19
  %28 = icmp sgt i32 %27, 0
  br i1 %28, label %29, label %32

29:                                               ; preds = %26
  %30 = load i32, ptr %5, align 4, !tbaa !19
  %31 = or i32 %30, 8
  store i32 %31, ptr %5, align 4, !tbaa !19
  br label %32

32:                                               ; preds = %29, %26
  %33 = load i32, ptr %5, align 4, !tbaa !19
  call void @llvm.lifetime.end.p0(i64 4, ptr %5) #8
  ret i32 %33
}

; Function Attrs: nounwind uwtable
define internal ptr @getthread(ptr noundef %0, ptr noundef %1) #0 {
  %3 = alloca ptr, align 8
  %4 = alloca ptr, align 8
  %5 = alloca ptr, align 8
  store ptr %0, ptr %4, align 8, !tbaa !4
  store ptr %1, ptr %5, align 8, !tbaa !46
  %6 = load ptr, ptr %4, align 8, !tbaa !4
  %7 = getelementptr inbounds nuw %struct.lua_State, ptr %6, i32 0, i32 7
  %8 = load ptr, ptr %7, align 8, !tbaa !18
  %9 = load ptr, ptr %4, align 8, !tbaa !4
  %10 = getelementptr inbounds nuw %struct.lua_State, ptr %9, i32 0, i32 8
  %11 = load ptr, ptr %10, align 8, !tbaa !9
  %12 = icmp ult ptr %8, %11
  br i1 %12, label %13, label %30

13:                                               ; preds = %2
  %14 = load ptr, ptr %4, align 8, !tbaa !4
  %15 = getelementptr inbounds nuw %struct.lua_State, ptr %14, i32 0, i32 7
  %16 = load ptr, ptr %15, align 8, !tbaa !18
  %17 = load i64, ptr %16, align 8, !tbaa !17
  %18 = ashr i64 %17, 47
  %19 = trunc i64 %18 to i32
  %20 = icmp eq i32 %19, -7
  br i1 %20, label %21, label %30

21:                                               ; preds = %13
  %22 = load ptr, ptr %5, align 8, !tbaa !46
  store i32 1, ptr %22, align 4, !tbaa !19
  %23 = load ptr, ptr %4, align 8, !tbaa !4
  %24 = getelementptr inbounds nuw %struct.lua_State, ptr %23, i32 0, i32 7
  %25 = load ptr, ptr %24, align 8, !tbaa !18
  %26 = getelementptr inbounds nuw %struct.GCRef, ptr %25, i32 0, i32 0
  %27 = load i64, ptr %26, align 8, !tbaa !17
  %28 = and i64 %27, 140737488355327
  %29 = inttoptr i64 %28 to ptr
  store ptr %29, ptr %3, align 8
  br label %33

30:                                               ; preds = %13, %2
  %31 = load ptr, ptr %5, align 8, !tbaa !46
  store i32 0, ptr %31, align 4, !tbaa !19
  %32 = load ptr, ptr %4, align 8, !tbaa !4
  store ptr %32, ptr %3, align 8
  br label %33

33:                                               ; preds = %30, %21
  %34 = load ptr, ptr %3, align 8
  ret ptr %34
}

; Function Attrs: nounwind uwtable
define internal i32 @lj_cf_debug_sethook(ptr noundef %0) #0 {
  %2 = alloca ptr, align 8
  %3 = alloca i32, align 4
  %4 = alloca i32, align 4
  %5 = alloca i32, align 4
  %6 = alloca ptr, align 8
  %7 = alloca ptr, align 8
  store ptr %0, ptr %2, align 8, !tbaa !4
  call void @llvm.lifetime.start.p0(i64 4, ptr %3) #8
  call void @llvm.lifetime.start.p0(i64 4, ptr %4) #8
  call void @llvm.lifetime.start.p0(i64 4, ptr %5) #8
  call void @llvm.lifetime.start.p0(i64 8, ptr %6) #8
  %8 = load ptr, ptr %2, align 8, !tbaa !4
  %9 = call ptr @getthread(ptr noundef %8, ptr noundef %3)
  %10 = load ptr, ptr %2, align 8, !tbaa !4
  %11 = load i32, ptr %3, align 4, !tbaa !19
  %12 = add nsw i32 %11, 1
  %13 = call i32 @lua_type(ptr noundef %10, i32 noundef %12)
  %14 = icmp sle i32 %13, 0
  br i1 %14, label %15, label %19

15:                                               ; preds = %1
  %16 = load ptr, ptr %2, align 8, !tbaa !4
  %17 = load i32, ptr %3, align 4, !tbaa !19
  %18 = add nsw i32 %17, 1
  call void @lua_settop(ptr noundef %16, i32 noundef %18)
  store ptr null, ptr %6, align 8, !tbaa !42
  store i32 0, ptr %4, align 4, !tbaa !19
  store i32 0, ptr %5, align 4, !tbaa !19
  br label %35

19:                                               ; preds = %1
  call void @llvm.lifetime.start.p0(i64 8, ptr %7) #8
  %20 = load ptr, ptr %2, align 8, !tbaa !4
  %21 = load i32, ptr %3, align 4, !tbaa !19
  %22 = add nsw i32 %21, 2
  %23 = call ptr @luaL_checklstring(ptr noundef %20, i32 noundef %22, ptr noundef null)
  store ptr %23, ptr %7, align 8, !tbaa !20
  %24 = load ptr, ptr %2, align 8, !tbaa !4
  %25 = load i32, ptr %3, align 4, !tbaa !19
  %26 = add nsw i32 %25, 1
  call void @luaL_checktype(ptr noundef %24, i32 noundef %26, i32 noundef 6)
  %27 = load ptr, ptr %2, align 8, !tbaa !4
  %28 = load i32, ptr %3, align 4, !tbaa !19
  %29 = add nsw i32 %28, 3
  %30 = call i64 @luaL_optinteger(ptr noundef %27, i32 noundef %29, i64 noundef 0)
  %31 = trunc i64 %30 to i32
  store i32 %31, ptr %5, align 4, !tbaa !19
  store ptr @hookf, ptr %6, align 8, !tbaa !42
  %32 = load ptr, ptr %7, align 8, !tbaa !20
  %33 = load i32, ptr %5, align 4, !tbaa !19
  %34 = call i32 @makemask(ptr noundef %32, i32 noundef %33)
  store i32 %34, ptr %4, align 4, !tbaa !19
  call void @llvm.lifetime.end.p0(i64 8, ptr %7) #8
  br label %35

35:                                               ; preds = %19, %15
  %36 = load ptr, ptr %2, align 8, !tbaa !4
  %37 = getelementptr inbounds nuw %struct.lua_State, ptr %36, i32 0, i32 8
  %38 = load ptr, ptr %37, align 8, !tbaa !9
  %39 = getelementptr inbounds nuw %union.TValue, ptr %38, i32 1
  store ptr %39, ptr %37, align 8, !tbaa !9
  store i64 -9223372036854775704, ptr %38, align 8, !tbaa !17
  %40 = load ptr, ptr %2, align 8, !tbaa !4
  %41 = load i32, ptr %3, align 4, !tbaa !19
  %42 = add nsw i32 %41, 1
  call void @lua_pushvalue(ptr noundef %40, i32 noundef %42)
  %43 = load ptr, ptr %2, align 8, !tbaa !4
  call void @lua_rawset(ptr noundef %43, i32 noundef -10000)
  %44 = load ptr, ptr %2, align 8, !tbaa !4
  %45 = load ptr, ptr %6, align 8, !tbaa !42
  %46 = load i32, ptr %4, align 4, !tbaa !19
  %47 = load i32, ptr %5, align 4, !tbaa !19
  %48 = call i32 @lua_sethook(ptr noundef %44, ptr noundef %45, i32 noundef %46, i32 noundef %47)
  call void @llvm.lifetime.end.p0(i64 8, ptr %6) #8
  call void @llvm.lifetime.end.p0(i64 4, ptr %5) #8
  call void @llvm.lifetime.end.p0(i64 4, ptr %4) #8
  call void @llvm.lifetime.end.p0(i64 4, ptr %3) #8
  ret i32 0
}