; Function Attrs: nounwind uwtable
define internal noundef i32 @lj_cf_debug_sethook(ptr noundef %0) #0 {
  %2 = getelementptr inbounds nuw i8, ptr %0, i64 32
  %3 = load ptr, ptr %2, align 8, !tbaa !16
  %4 = getelementptr inbounds nuw i8, ptr %0, i64 40
  %5 = load ptr, ptr %4, align 8, !tbaa !4
  %6 = icmp ult ptr %3, %5
  br i1 %6, label %7, label %getthread.exit

7:                                                ; preds = %1
  %8 = load i64, ptr %3, align 8, !tbaa !15
  %.mask.i = and i64 %8, -140737488355328
  %9 = icmp eq i64 %.mask.i, -985162418487296
  %spec.select = zext i1 %9 to i32
  br label %getthread.exit

getthread.exit:                                   ; preds = %7, %1
  %.021 = phi i32 [ 0, %1 ], [ %spec.select, %7 ]
  %10 = add nuw nsw i32 %.021, 1
  %11 = tail call i32 @lua_type(ptr noundef nonnull %0, i32 noundef %10) #10
  %12 = icmp slt i32 %11, 1
  br i1 %12, label %13, label %14

13:                                               ; preds = %getthread.exit
  tail call void @lua_settop(ptr noundef nonnull %0, i32 noundef %10) #10
  br label %27

14:                                               ; preds = %getthread.exit
  %15 = or disjoint i32 %.021, 2
  %16 = tail call ptr @luaL_checklstring(ptr noundef nonnull %0, i32 noundef %15, ptr noundef null) #10
  tail call void @luaL_checktype(ptr noundef nonnull %0, i32 noundef %10, i32 noundef 6) #10
  %17 = add nuw nsw i32 %.021, 3
  %18 = tail call i64 @luaL_optinteger(ptr noundef nonnull %0, i32 noundef %17, i64 noundef 0) #10
  %19 = trunc i64 %18 to i32
  %20 = tail call ptr @strchr(ptr noundef nonnull readonly dereferenceable(1) %16, i32 noundef 99) #12
  %.not.i = icmp ne ptr %20, null
  %spec.select.i = zext i1 %.not.i to i32
  %21 = tail call ptr @strchr(ptr noundef nonnull readonly dereferenceable(1) %16, i32 noundef 114) #12
  %.not8.i = icmp eq ptr %21, null
  %22 = or disjoint i32 %spec.select.i, 2
  %.1.i = select i1 %.not8.i, i32 %spec.select.i, i32 %22
  %23 = tail call ptr @strchr(ptr noundef nonnull readonly dereferenceable(1) %16, i32 noundef 108) #12
  %.not9.i = icmp eq ptr %23, null
  %24 = or disjoint i32 %.1.i, 4
  %.2.i = select i1 %.not9.i, i32 %.1.i, i32 %24
  %25 = icmp sgt i32 %19, 0
  %26 = or disjoint i32 %.2.i, 8
  %.3.i = select i1 %25, i32 %26, i32 %.2.i
  br label %27

27:                                               ; preds = %14, %13
  %.015 = phi i32 [ 0, %13 ], [ %19, %14 ]
  %.014 = phi ptr [ null, %13 ], [ @hookf, %14 ]
  %.0 = phi i32 [ 0, %13 ], [ %.3.i, %14 ]
  %28 = load ptr, ptr %4, align 8, !tbaa !4
  %29 = getelementptr inbounds nuw i8, ptr %28, i64 8
  store ptr %29, ptr %4, align 8, !tbaa !4
  store i64 -9223372036854775704, ptr %28, align 8, !tbaa !15
  tail call void @lua_pushvalue(ptr noundef nonnull %0, i32 noundef %10) #10
  tail call void @lua_rawset(ptr noundef nonnull %0, i32 noundef -10000) #10
  %30 = tail call i32 @lua_sethook(ptr noundef nonnull %0, ptr noundef %.014, i32 noundef %.0, i32 noundef %.015) #10
  ret i32 0
}